target datalayout = "e-m:e-p270:32:32-p271:32:32-p272:64:64-i64:64-i128:128-f80:128-n8:16:32:64-S128"
target triple = "x86_64-pc-linux-gnu"

%struct.strbuf = type { i64, i64, ptr }
%struct.list_objects_filter_options = type { %struct.strbuf, i32, i8, ptr, i64, i64, i32, i64, i64, ptr }
%struct.promisor_remote = type { ptr, ptr, [0 x i8] }

@.str.6 = private unnamed_addr constant [30 x i8] c"list-objects-filter-options.c\00", align 1
@.str.23 = private unnamed_addr constant [41 x i8] c"no filter_spec available for this filter\00", align 1
@.str.24 = private unnamed_addr constant [15 x i8] c"blob:limit=%lu\00", align 1
@the_repository = external global ptr, align 8
@.str.25 = private unnamed_addr constant [61 x i8] c"unable to upgrade repository format to support partial clone\00", align 1
@.str.26 = private unnamed_addr constant [19 x i8] c"remote.%s.promisor\00", align 1
@.str.27 = private unnamed_addr constant [5 x i8] c"true\00", align 1
@.str.28 = private unnamed_addr constant [29 x i8] c"remote.%s.partialclonefilter\00", align 1

; Function Attrs: nounwind uwtable
define dso_local ptr @list_objects_filter_spec(ptr noundef %0) #0 {
  %2 = alloca ptr, align 8
  store ptr %0, ptr %2, align 8, !tbaa !8
  %3 = load ptr, ptr %2, align 8, !tbaa !8
  %4 = getelementptr inbounds nuw %struct.list_objects_filter_options, ptr %3, i32 0, i32 0
  %5 = getelementptr inbounds nuw %struct.strbuf, ptr %4, i32 0, i32 1
  %6 = load i64, ptr %5, align 8, !tbaa !37
  %7 = icmp ne i64 %6, 0
  br i1 %7, label %9, label %8

8:                                                ; preds = %1
  call void (ptr, i32, ptr, ...) @BUG_fl(ptr noundef @.str.6, i32 noundef 300, ptr noundef @.str.23) #9
  unreachable

9:                                                ; preds = %1
  %10 = load ptr, ptr %2, align 8, !tbaa !8
  %11 = getelementptr inbounds nuw %struct.list_objects_filter_options, ptr %10, i32 0, i32 0
  %12 = getelementptr inbounds nuw %struct.strbuf, ptr %11, i32 0, i32 2
  %13 = load ptr, ptr %12, align 8, !tbaa !31
  ret ptr %13
}

; Function Attrs: nounwind uwtable
define dso_local ptr @expand_list_objects_filter_spec(ptr noundef %0) #0 {
  %2 = alloca ptr, align 8
  store ptr %0, ptr %2, align 8, !tbaa !8
  %3 = load ptr, ptr %2, align 8, !tbaa !8
  %4 = getelementptr inbounds nuw %struct.list_objects_filter_options, ptr %3, i32 0, i32 1
  %5 = load i32, ptr %4, align 8, !tbaa !15
  %6 = icmp eq i32 %5, 2
  br i1 %6, label %7, label %15

7:                                                ; preds = %1
  %8 = load ptr, ptr %2, align 8, !tbaa !8
  %9 = getelementptr inbounds nuw %struct.list_objects_filter_options, ptr %8, i32 0, i32 0
  call void @strbuf_release(ptr noundef %9)
  %10 = load ptr, ptr %2, align 8, !tbaa !8
  %11 = getelementptr inbounds nuw %struct.list_objects_filter_options, ptr %10, i32 0, i32 0
  %12 = load ptr, ptr %2, align 8, !tbaa !8
  %13 = getelementptr inbounds nuw %struct.list_objects_filter_options, ptr %12, i32 0, i32 4
  %14 = load i64, ptr %13, align 8, !tbaa !42
  call void (ptr, ptr, ...) @strbuf_addf(ptr noundef %11, ptr noundef @.str.24, i64 noundef %14)
  br label %15

15:                                               ; preds = %7, %1
  %16 = load ptr, ptr %2, align 8, !tbaa !8
  %17 = call ptr @list_objects_filter_spec(ptr noundef %16)
  ret ptr %17
}

; Function Attrs: inlinehint nounwind uwtable
define internal void @git_config_set(ptr noundef %0, ptr noundef %1) #4 {
  %3 = alloca ptr, align 8
  %4 = alloca ptr, align 8
  store ptr %0, ptr %3, align 8, !tbaa !11
  store ptr %1, ptr %4, align 8, !tbaa !11
  %5 = load ptr, ptr @the_repository, align 8, !tbaa !44
  %6 = load ptr, ptr %3, align 8, !tbaa !11
  %7 = load ptr, ptr %4, align 8, !tbaa !11
  call void @repo_config_set(ptr noundef %5, ptr noundef %6, ptr noundef %7)
  ret void
}

; Function Attrs: nounwind uwtable
define dso_local void @partial_clone_register(ptr noundef %0, ptr noundef %1) #0 {
  %3 = alloca ptr, align 8
  %4 = alloca ptr, align 8
  %5 = alloca ptr, align 8
  %6 = alloca ptr, align 8
  %7 = alloca ptr, align 8
  %8 = alloca i32, align 4
  store ptr %0, ptr %3, align 8, !tbaa !11
  store ptr %1, ptr %4, align 8, !tbaa !8
  call void @llvm.lifetime.start.p0(i64 8, ptr %5) #10
  call void @llvm.lifetime.start.p0(i64 8, ptr %6) #10
  call void @llvm.lifetime.start.p0(i64 8, ptr %7) #10
  %9 = load ptr, ptr @the_repository, align 8, !tbaa !44
  %10 = load ptr, ptr %3, align 8, !tbaa !11
  %11 = call ptr @repo_promisor_remote_find(ptr noundef %9, ptr noundef %10)
  store ptr %11, ptr %5, align 8, !tbaa !46
  %12 = icmp ne ptr %11, null
  br i1 %12, label %13, label %20

13:                                               ; preds = %2
  %14 = load ptr, ptr %5, align 8, !tbaa !46
  %15 = getelementptr inbounds nuw %struct.promisor_remote, ptr %14, i32 0, i32 1
  %16 = load ptr, ptr %15, align 8, !tbaa !11
  %17 = icmp ne ptr %16, null
  br i1 %17, label %18, label %19

18:                                               ; preds = %13
  store i32 1, ptr %8, align 4
  br label %38

19:                                               ; preds = %13
  br label %30

20:                                               ; preds = %2
  %21 = call i32 @upgrade_repository_format(i32 noundef 1)
  %22 = icmp slt i32 %21, 0
  br i1 %22, label %23, label %25

23:                                               ; preds = %20
  %24 = call ptr @_(ptr noundef @.str.25)
  call void (ptr, ...) @die(ptr noundef %24) #9
  unreachable

25:                                               ; preds = %20
  %26 = load ptr, ptr %3, align 8, !tbaa !11
  %27 = call ptr (ptr, ...) @xstrfmt(ptr noundef @.str.26, ptr noundef %26)
  store ptr %27, ptr %6, align 8, !tbaa !11
  %28 = load ptr, ptr %6, align 8, !tbaa !11
  call void @git_config_set(ptr noundef %28, ptr noundef @.str.27)
  %29 = load ptr, ptr %6, align 8, !tbaa !11
  call void @free(ptr noundef %29) #10
  br label %30

30:                                               ; preds = %25, %19
  %31 = load ptr, ptr %3, align 8, !tbaa !11
  %32 = call ptr (ptr, ...) @xstrfmt(ptr noundef @.str.28, ptr noundef %31)
  store ptr %32, ptr %7, align 8, !tbaa !11
  %33 = load ptr, ptr %7, align 8, !tbaa !11
  %34 = load ptr, ptr %4, align 8, !tbaa !8
  %35 = call ptr @expand_list_objects_filter_spec(ptr noundef %34)
  call void @git_config_set(ptr noundef %33, ptr noundef %35)
  %36 = load ptr, ptr %7, align 8, !tbaa !11
  call void @free(ptr noundef %36) #10
  %37 = load ptr, ptr @the_repository, align 8, !tbaa !44
  call void @repo_promisor_remote_reinit(ptr noundef %37)
  store i32 0, ptr %8, align 4
  br label %38

38:                                               ; preds = %30, %18
  call void @llvm.lifetime.end.p0(i64 8, ptr %7) #10
  call void @llvm.lifetime.end.p0(i64 8, ptr %6) #10
  call void @llvm.lifetime.end.p0(i64 8, ptr %5) #10
  %39 = load i32, ptr %8, align 4
  switch i32 %39, label %41 [
    i32 0, label %40
    i32 1, label %40
  ]

40:                                               ; preds = %38, %38
  ret void

41:                                               ; preds = %38
  unreachable
}