; Function Attrs: nounwind uwtable
define dso_local void @partial_clone_register(ptr noundef %0, ptr noundef %1) local_unnamed_addr #0 {
  %3 = load ptr, ptr @the_repository, align 8, !tbaa !42
  %4 = tail call ptr @repo_promisor_remote_find(ptr noundef %3, ptr noundef %0) #16
  %.not = icmp eq ptr %4, null
  br i1 %.not, label %8, label %5

5:                                                ; preds = %2
  %6 = getelementptr inbounds nuw i8, ptr %4, i64 8
  %7 = load ptr, ptr %6, align 8, !tbaa !32
  %.not9 = icmp eq ptr %7, null
  br i1 %.not9, label %16, label %32

8:                                                ; preds = %2
  %9 = tail call i32 @upgrade_repository_format(i32 noundef 1) #16
  %10 = icmp slt i32 %9, 0
  br i1 %10, label %11, label %13

11:                                               ; preds = %8
  %12 = tail call fastcc ptr @_(ptr noundef nonnull @.str.25)
  tail call void (ptr, ...) @die(ptr noundef %12) #14
  unreachable

13:                                               ; preds = %8
  %14 = tail call ptr (ptr, ...) @xstrfmt(ptr noundef nonnull @.str.26, ptr noundef %0) #16
  %15 = load ptr, ptr @the_repository, align 8, !tbaa !42
  tail call void @repo_config_set(ptr noundef %15, ptr noundef %14, ptr noundef nonnull @.str.27) #16
  tail call void @free(ptr noundef %14) #16
  br label %16

16:                                               ; preds = %5, %13
  %17 = tail call ptr (ptr, ...) @xstrfmt(ptr noundef nonnull @.str.28, ptr noundef %0) #16
  %18 = getelementptr inbounds nuw i8, ptr %1, i64 24
  %19 = load i32, ptr %18, align 8, !tbaa !4
  %20 = icmp eq i32 %19, 2
  br i1 %20, label %21, label %24

21:                                               ; preds = %16
  tail call void @strbuf_release(ptr noundef nonnull %1) #16
  %22 = getelementptr inbounds nuw i8, ptr %1, i64 40
  %23 = load i64, ptr %22, align 8, !tbaa !40
  tail call void (ptr, ptr, ...) @strbuf_addf(ptr noundef nonnull %1, ptr noundef nonnull @.str.24, i64 noundef %23) #16
  br label %24

24:                                               ; preds = %21, %16
  %25 = getelementptr inbounds nuw i8, ptr %1, i64 8
  %26 = load i64, ptr %25, align 8, !tbaa !34
  %.not.i.i = icmp eq i64 %26, 0
  br i1 %.not.i.i, label %27, label %expand_list_objects_filter_spec.exit

27:                                               ; preds = %24
  tail call void (ptr, i32, ptr, ...) @BUG_fl(ptr noundef nonnull @.str.6, i32 noundef 300, ptr noundef nonnull @.str.23) #14
  unreachable

expand_list_objects_filter_spec.exit:             ; preds = %24
  %28 = getelementptr inbounds nuw i8, ptr %1, i64 16
  %29 = load ptr, ptr %28, align 8, !tbaa !29
  %30 = load ptr, ptr @the_repository, align 8, !tbaa !42
  tail call void @repo_config_set(ptr noundef %30, ptr noundef %17, ptr noundef %29) #16
  tail call void @free(ptr noundef %17) #16
  %31 = load ptr, ptr @the_repository, align 8, !tbaa !42
  tail call void @repo_promisor_remote_reinit(ptr noundef %31) #16
  br label %32

32:                                               ; preds = %5, %expand_list_objects_filter_spec.exit
  ret void
}